; Function Attrs: mustprogress uwtable
define dso_local noundef i32 @_Z12lua_getfieldP9lua_StateiPKc(ptr noundef %0, i32 noundef %1, ptr noundef %2) local_unnamed_addr #3 {
  %4 = alloca %struct.lua_TValue, align 8
  %5 = getelementptr inbounds nuw i8, ptr %0, i64 1
  %6 = load i8, ptr %5, align 1, !tbaa !21
  %7 = and i8 %6, 4
  %.not = icmp eq i8 %7, 0
  br i1 %.not, label %10, label %8

8:                                                ; preds = %3
  %9 = getelementptr inbounds nuw i8, ptr %0, i64 104
  tail call void @_Z16luaC_barrierbackP9lua_StateP8GCObjectPS2_(ptr noundef nonnull %0, ptr noundef nonnull %0, ptr noundef nonnull %9)
  br label %10

10:                                               ; preds = %8, %3
  %11 = icmp sgt i32 %1, 0
  br i1 %11, label %12, label %20

12:                                               ; preds = %10
  %13 = getelementptr inbounds nuw i8, ptr %0, i64 16
  %14 = load ptr, ptr %13, align 8, !tbaa !4
  %15 = zext nneg i32 %1 to i64
  %16 = getelementptr %struct.lua_TValue, ptr %14, i64 %15
  %17 = getelementptr i8, ptr %16, i64 -16
  %18 = getelementptr inbounds nuw i8, ptr %0, i64 8
  %19 = load ptr, ptr %18, align 8, !tbaa !19
  %.not.i = icmp ult ptr %17, %19
  %.luaO_nilobject_.i = select i1 %.not.i, ptr %17, ptr @luaO_nilobject_
  br label %_ZL10index2addrP9lua_Statei.exit

20:                                               ; preds = %10
  %21 = icmp sgt i32 %1, -10000
  br i1 %21, label %22, label %27

22:                                               ; preds = %20
  %23 = getelementptr inbounds nuw i8, ptr %0, i64 8
  %24 = load ptr, ptr %23, align 8, !tbaa !19
  %25 = sext i32 %1 to i64
  %26 = getelementptr inbounds %struct.lua_TValue, ptr %24, i64 %25
  br label %_ZL10index2addrP9lua_Statei.exit

27:                                               ; preds = %20
  %28 = tail call fastcc noundef ptr @_ZL11pseudo2addrP9lua_Statei(ptr noundef nonnull %0, i32 noundef %1)
  br label %_ZL10index2addrP9lua_Statei.exit

_ZL10index2addrP9lua_Statei.exit:                 ; preds = %12, %22, %27
  %.1.i = phi ptr [ %.luaO_nilobject_.i, %12 ], [ %26, %22 ], [ %28, %27 ]
  call void @llvm.lifetime.start.p0(i64 16, ptr nonnull %4) #19
  %29 = tail call i64 @strlen(ptr noundef nonnull dereferenceable(1) %2) #20
  %30 = tail call noundef ptr @_Z12luaS_newlstrP9lua_StatePKcm(ptr noundef nonnull %0, ptr noundef nonnull %2, i64 noundef %29)
  store ptr %30, ptr %4, align 8, !tbaa !21
  %31 = getelementptr inbounds nuw i8, ptr %4, i64 12
  store i32 5, ptr %31, align 4, !tbaa !47
  %32 = getelementptr inbounds nuw i8, ptr %0, i64 8
  %33 = load ptr, ptr %32, align 8, !tbaa !19
  call void @_Z13luaV_gettableP9lua_StatePK10lua_TValuePS1_S4_(ptr noundef nonnull %0, ptr noundef %.1.i, ptr noundef nonnull %4, ptr noundef %33)
  %34 = load ptr, ptr %32, align 8, !tbaa !19
  %35 = getelementptr inbounds nuw i8, ptr %34, i64 16
  store ptr %35, ptr %32, align 8, !tbaa !19
  %36 = getelementptr inbounds nuw i8, ptr %34, i64 12
  %37 = load i32, ptr %36, align 4, !tbaa !47
  call void @llvm.lifetime.end.p0(i64 16, ptr nonnull %4) #19
  ret i32 %37
}